; Function Attrs: mustprogress uwtable
define dso_local void @_ZN15cmCustomCommand18RecordPolicyValuesERK15cmStateSnapshot(ptr noundef nonnull writeonly align 8 captures(none) dereferenceable(348) initializes((340, 348)) %0, ptr noundef nonnull align 8 dereferenceable(24) %1) local_unnamed_addr #6 align 2 {
  %3 = tail call noundef i32 @_ZNK15cmStateSnapshot9GetPolicyEN10cmPolicies8PolicyIDEb(ptr noundef nonnull align 8 dereferenceable(24) %1, i32 noundef 116, i1 noundef zeroext false)
  %4 = getelementptr inbounds nuw i8, ptr %0, i64 340
  store i32 %3, ptr %4, align 4, !tbaa !75
  %5 = tail call noundef i32 @_ZNK15cmStateSnapshot9GetPolicyEN10cmPolicies8PolicyIDEb(ptr noundef nonnull align 8 dereferenceable(24) %1, i32 noundef 147, i1 noundef zeroext false)
  %6 = getelementptr inbounds nuw i8, ptr %0, i64 344
  store i32 %5, ptr %6, align 8, !tbaa !76
  ret void
}